; Function Attrs: mustprogress nounwind sspstrong willreturn uwtable
define hidden range(i32 0, 2) i32 @FLAC__bitwriter_write_raw_uint64(ptr noundef %bw, i64 noundef %val, i32 noundef %bits) local_unnamed_addr #2 {
entry:
  %cmp = icmp ugt i32 %bits, 32
  br i1 %cmp, label %if.then, label %if.else

if.then:                                          ; preds = %entry
  %shr = lshr i64 %val, 32
  %conv = trunc nuw i64 %shr to i32
  %sub = add i32 %bits, -32
  %cmp.i = icmp ugt i32 %sub, 31
  %shr.i = lshr i32 %conv, %sub
  %cmp1.not.i = icmp eq i32 %shr.i, 0
  %or.cond.i = select i1 %cmp.i, i1 true, i1 %cmp1.not.i
  br i1 %or.cond.i, label %FLAC__bitwriter_write_raw_uint32.exit, label %return

FLAC__bitwriter_write_raw_uint32.exit:            ; preds = %if.then
  %call.i = tail call fastcc i32 @FLAC__bitwriter_write_raw_uint32_nocheck(ptr noundef %bw, i32 noundef %conv, i32 noundef %sub)
  %tobool.not = icmp eq i32 %call.i, 0
  br i1 %tobool.not, label %return, label %land.rhs

land.rhs:                                         ; preds = %FLAC__bitwriter_write_raw_uint32.exit
  %conv1 = trunc i64 %val to i32
  %call2 = tail call fastcc i32 @FLAC__bitwriter_write_raw_uint32_nocheck(ptr noundef %bw, i32 noundef %conv1, i32 noundef 32)
  br label %return

if.else:                                          ; preds = %entry
  %conv4 = trunc i64 %val to i32
  %cmp.i7 = icmp eq i32 %bits, 32
  %shr.i8 = lshr i32 %conv4, %bits
  %cmp1.not.i9 = icmp eq i32 %shr.i8, 0
  %or.cond.i10 = select i1 %cmp.i7, i1 true, i1 %cmp1.not.i9
  br i1 %or.cond.i10, label %if.end.i12, label %return

if.end.i12:                                       ; preds = %if.else
  %call.i13 = tail call fastcc i32 @FLAC__bitwriter_write_raw_uint32_nocheck(ptr noundef %bw, i32 noundef %conv4, i32 noundef %bits)
  br label %return

return:                                           ; preds = %if.then, %if.end.i12, %if.else, %FLAC__bitwriter_write_raw_uint32.exit, %land.rhs
  %retval.0 = phi i32 [ 0, %FLAC__bitwriter_write_raw_uint32.exit ], [ %call2, %land.rhs ], [ %call.i13, %if.end.i12 ], [ 0, %if.else ], [ 0, %if.then ]
  ret i32 %retval.0
}